; Function Attrs: mustprogress uwtable
define hidden noundef ptr @_ZN7datalog20karr_relation_plugin12mk_rename_fnERKNS_13relation_baseEjPKj(ptr noundef nonnull readnone align 8 dereferenceable(184) %this, ptr noundef nonnull align 8 dereferenceable(28) %r, i32 noundef %cycle_len, ptr noundef %permutation_cycle) unnamed_addr #3 align 2 {
entry:
  %m_plugin.i.i = getelementptr inbounds i8, ptr %r, i64 8
  %0 = load ptr, ptr %m_plugin.i.i, align 8
  %cmp.i = icmp eq ptr %0, %this
  br i1 %cmp.i, label %if.end, label %return

if.end:                                           ; preds = %entry
  %call2 = tail call noalias noundef ptr @_ZN6memory8allocateEm(i64 noundef 24)
  %m_signature.i = getelementptr inbounds i8, ptr %r, i64 16
  tail call void @_ZN7datalog17tr_infrastructureINS_15relation_traitsEE20convenient_rename_fnC2ERKNS_18relation_signatureEjPKj(ptr noundef nonnull align 8 dereferenceable(24) %call2, ptr noundef nonnull align 8 dereferenceable(8) %m_signature.i, i32 noundef %cycle_len, ptr noundef %permutation_cycle)
  store ptr getelementptr inbounds ({ [5 x ptr] }, ptr @_ZTVN7datalog20karr_relation_plugin9rename_fnE, i64 0, i32 0, i64 2), ptr %call2, align 8
  br label %return

return:                                           ; preds = %entry, %if.end
  %retval.0 = phi ptr [ %call2, %if.end ], [ null, %entry ]
  ret ptr %retval.0
}